target datalayout = "e-m:e-p270:32:32-p271:32:32-p272:64:64-i64:64-i128:128-f80:128-n8:16:32:64-S128"
target triple = "x86_64-unknown-linux-gnu"

%struct.UStringSearch = type { ptr, %struct.UPattern, ptr, ptr, ptr, ptr, ptr, i8, i32, i32, i32, i8 }
%struct.UPattern = type { ptr, i32, i32, ptr, [256 x i32], i32, ptr, [256 x i64], i8, i8 }
%struct.USearch = type { ptr, i32, i8, i8, i16, ptr, ptr, i32, i32, i8, i8 }

; Function Attrs: mustprogress nounwind uwtable
define internal noundef signext i8 @_ZL9U_SUCCESS10UErrorCode(i32 noundef %code) #1 {
entry:
  %code.addr = alloca i32, align 4
  store i32 %code, ptr %code.addr, align 4
  %0 = load i32, ptr %code.addr, align 4
  %cmp = icmp sle i32 %0, 0
  %conv = zext i1 %cmp to i8
  ret i8 %conv
}

; Function Attrs: mustprogress uwtable
define internal void @_ZL17setColEIterOffsetP18UCollationElementsiR10UErrorCode(ptr noundef %elems, i32 noundef %offset, ptr noundef nonnull align 4 dereferenceable(4) %status) #0 {
entry:
  %elems.addr = alloca ptr, align 8
  %offset.addr = alloca i32, align 4
  %status.addr = alloca ptr, align 8
  store ptr %elems, ptr %elems.addr, align 8
  store i32 %offset, ptr %offset.addr, align 4
  store ptr %status, ptr %status.addr, align 8
  %0 = load ptr, ptr %elems.addr, align 8
  %1 = load i32, ptr %offset.addr, align 4
  %2 = load ptr, ptr %status.addr, align 8
  call void @ucol_setOffset_75(ptr noundef %0, i32 noundef %1, ptr noundef %2)
  ret void
}

; Function Attrs: mustprogress uwtable
define internal void @_ZL16setMatchNotFoundP13UStringSearchR10UErrorCode(ptr noundef %strsrch, ptr noundef nonnull align 4 dereferenceable(4) %status) #0 {
entry:
  %strsrch.addr = alloca ptr, align 8
  %status.addr = alloca ptr, align 8
  %localStatus = alloca i32, align 4
  store ptr %strsrch, ptr %strsrch.addr, align 8
  store ptr %status, ptr %status.addr, align 8
  store i32 0, ptr %localStatus, align 4
  %0 = load ptr, ptr %strsrch.addr, align 8
  %search = getelementptr inbounds %struct.UStringSearch, ptr %0, i32 0, i32 0
  %1 = load ptr, ptr %search, align 8
  %matchedIndex = getelementptr inbounds %struct.USearch, ptr %1, i32 0, i32 7
  store i32 -1, ptr %matchedIndex, align 8
  %2 = load ptr, ptr %strsrch.addr, align 8
  %search1 = getelementptr inbounds %struct.UStringSearch, ptr %2, i32 0, i32 0
  %3 = load ptr, ptr %search1, align 8
  %matchedLength = getelementptr inbounds %struct.USearch, ptr %3, i32 0, i32 8
  store i32 0, ptr %matchedLength, align 4
  %4 = load ptr, ptr %strsrch.addr, align 8
  %search2 = getelementptr inbounds %struct.UStringSearch, ptr %4, i32 0, i32 0
  %5 = load ptr, ptr %search2, align 8
  %isForwardSearching = getelementptr inbounds %struct.USearch, ptr %5, i32 0, i32 9
  %6 = load i8, ptr %isForwardSearching, align 8
  %tobool = icmp ne i8 %6, 0
  br i1 %tobool, label %if.then, label %if.else

if.then:                                          ; preds = %entry
  %7 = load ptr, ptr %strsrch.addr, align 8
  %textIter = getelementptr inbounds %struct.UStringSearch, ptr %7, i32 0, i32 4
  %8 = load ptr, ptr %textIter, align 8
  %9 = load ptr, ptr %strsrch.addr, align 8
  %search3 = getelementptr inbounds %struct.UStringSearch, ptr %9, i32 0, i32 0
  %10 = load ptr, ptr %search3, align 8
  %textLength = getelementptr inbounds %struct.USearch, ptr %10, i32 0, i32 1
  %11 = load i32, ptr %textLength, align 8
  call void @_ZL17setColEIterOffsetP18UCollationElementsiR10UErrorCode(ptr noundef %8, i32 noundef %11, ptr noundef nonnull align 4 dereferenceable(4) %localStatus)
  br label %if.end

if.else:                                          ; preds = %entry
  %12 = load ptr, ptr %strsrch.addr, align 8
  %textIter4 = getelementptr inbounds %struct.UStringSearch, ptr %12, i32 0, i32 4
  %13 = load ptr, ptr %textIter4, align 8
  call void @_ZL17setColEIterOffsetP18UCollationElementsiR10UErrorCode(ptr noundef %13, i32 noundef 0, ptr noundef nonnull align 4 dereferenceable(4) %localStatus)
  br label %if.end

if.end:                                           ; preds = %if.else, %if.then
  %14 = load ptr, ptr %status.addr, align 8
  %15 = load i32, ptr %14, align 4
  %call = call noundef signext i8 @_ZL9U_SUCCESS10UErrorCode(i32 noundef %15)
  %tobool5 = icmp ne i8 %call, 0
  br i1 %tobool5, label %land.lhs.true, label %if.end9

land.lhs.true:                                    ; preds = %if.end
  %16 = load i32, ptr %localStatus, align 4
  %call6 = call noundef signext i8 @_ZL9U_FAILURE10UErrorCode(i32 noundef %16)
  %tobool7 = icmp ne i8 %call6, 0
  br i1 %tobool7, label %if.then8, label %if.end9

if.then8:                                         ; preds = %land.lhs.true
  %17 = load i32, ptr %localStatus, align 4
  %18 = load ptr, ptr %status.addr, align 8
  store i32 %17, ptr %18, align 4
  br label %if.end9

if.end9:                                          ; preds = %if.then8, %land.lhs.true, %if.end
  ret void
}

; Function Attrs: mustprogress nounwind uwtable
define internal noundef signext i8 @_ZL9U_FAILURE10UErrorCode(i32 noundef %code) #1 {
entry:
  %code.addr = alloca i32, align 4
  store i32 %code, ptr %code.addr, align 4
  %0 = load i32, ptr %code.addr, align 4
  %cmp = icmp sgt i32 %0, 0
  %conv = zext i1 %cmp to i8
  ret i8 %conv
}

; Function Attrs: mustprogress uwtable
define signext i8 @usearch_handleNextExact_75(ptr noundef %strsrch, ptr noundef %status) #0 {
entry:
  %retval = alloca i8, align 1
  %strsrch.addr = alloca ptr, align 8
  %status.addr = alloca ptr, align 8
  %textOffset = alloca i32, align 4
  %start = alloca i32, align 4
  %end = alloca i32, align 4
  store ptr %strsrch, ptr %strsrch.addr, align 8
  store ptr %status, ptr %status.addr, align 8
  %0 = load ptr, ptr %status.addr, align 8
  %1 = load i32, ptr %0, align 4
  %call = call noundef signext i8 @_ZL9U_FAILURE10UErrorCode(i32 noundef %1)
  %tobool = icmp ne i8 %call, 0
  br i1 %tobool, label %if.then, label %if.end

if.then:                                          ; preds = %entry
  %2 = load ptr, ptr %strsrch.addr, align 8
  %3 = load ptr, ptr %status.addr, align 8
  call void @_ZL16setMatchNotFoundP13UStringSearchR10UErrorCode(ptr noundef %2, ptr noundef nonnull align 4 dereferenceable(4) %3)
  store i8 0, ptr %retval, align 1
  br label %return

if.end:                                           ; preds = %entry
  %4 = load ptr, ptr %strsrch.addr, align 8
  %textIter = getelementptr inbounds %struct.UStringSearch, ptr %4, i32 0, i32 4
  %5 = load ptr, ptr %textIter, align 8
  %call1 = call i32 @ucol_getOffset_75(ptr noundef %5)
  store i32 %call1, ptr %textOffset, align 4
  store i32 -1, ptr %start, align 4
  store i32 -1, ptr %end, align 4
  %6 = load ptr, ptr %strsrch.addr, align 8
  %7 = load i32, ptr %textOffset, align 4
  %8 = load ptr, ptr %status.addr, align 8
  %call2 = call signext i8 @usearch_search_75(ptr noundef %6, i32 noundef %7, ptr noundef %start, ptr noundef %end, ptr noundef %8)
  %tobool3 = icmp ne i8 %call2, 0
  br i1 %tobool3, label %if.then4, label %if.else

if.then4:                                         ; preds = %if.end
  %9 = load i32, ptr %start, align 4
  %10 = load ptr, ptr %strsrch.addr, align 8
  %search = getelementptr inbounds %struct.UStringSearch, ptr %10, i32 0, i32 0
  %11 = load ptr, ptr %search, align 8
  %matchedIndex = getelementptr inbounds %struct.USearch, ptr %11, i32 0, i32 7
  store i32 %9, ptr %matchedIndex, align 8
  %12 = load i32, ptr %end, align 4
  %13 = load i32, ptr %start, align 4
  %sub = sub nsw i32 %12, %13
  %14 = load ptr, ptr %strsrch.addr, align 8
  %search5 = getelementptr inbounds %struct.UStringSearch, ptr %14, i32 0, i32 0
  %15 = load ptr, ptr %search5, align 8
  %matchedLength = getelementptr inbounds %struct.USearch, ptr %15, i32 0, i32 8
  store i32 %sub, ptr %matchedLength, align 4
  store i8 1, ptr %retval, align 1
  br label %return

if.else:                                          ; preds = %if.end
  %16 = load ptr, ptr %strsrch.addr, align 8
  %17 = load ptr, ptr %status.addr, align 8
  call void @_ZL16setMatchNotFoundP13UStringSearchR10UErrorCode(ptr noundef %16, ptr noundef nonnull align 4 dereferenceable(4) %17)
  store i8 0, ptr %retval, align 1
  br label %return

return:                                           ; preds = %if.else, %if.then4, %if.then
  %18 = load i8, ptr %retval, align 1
  ret i8 %18
}